target datalayout = "e-m:e-p270:32:32-p271:32:32-p272:64:64-i64:64-i128:128-f80:128-n8:16:32:64-S128"
target triple = "x86_64-pc-linux-gnu"

%struct.Aig_Man_t_ = type { ptr, ptr, ptr, ptr, ptr, ptr, ptr, %struct.Aig_Obj_t_, i32, i32, i32, i32, i32, i32, [7 x i32], i32, ptr, i32, ptr, i32, ptr, i32, i32, i32, ptr, i32, i32, i32, i32, i32, ptr, ptr, i32, ptr, ptr, i32, ptr, ptr, i32, i32, i32, ptr, ptr, ptr, ptr, ptr, ptr, ptr, ptr, ptr, ptr, ptr, ptr, ptr, ptr, i32, ptr, ptr, ptr, ptr, i32, i64, i64, i64, ptr, ptr }
%struct.Aig_Obj_t_ = type { %union.anon, ptr, ptr, i64, i32, i32, %union.anon.0 }
%union.anon = type { ptr }
%union.anon.0 = type { ptr }
%struct.Vec_Ptr_t_ = type { i32, i32, ptr }

; Function Attrs: inlinehint nounwind uwtable
define internal i32 @Aig_IsComplement(ptr noundef %0) #4 {
  %2 = alloca ptr, align 8
  store ptr %0, ptr %2, align 8, !tbaa !39
  %3 = load ptr, ptr %2, align 8, !tbaa !39
  %4 = ptrtoint ptr %3 to i64
  %5 = and i64 %4, 1
  %6 = trunc i64 %5 to i32
  ret i32 %6
}

; Function Attrs: inlinehint nounwind uwtable
define internal ptr @Aig_Regular(ptr noundef %0) #4 {
  %2 = alloca ptr, align 8
  store ptr %0, ptr %2, align 8, !tbaa !39
  %3 = load ptr, ptr %2, align 8, !tbaa !39
  %4 = ptrtoint ptr %3 to i64
  %5 = and i64 %4, -2
  %6 = inttoptr i64 %5 to ptr
  ret ptr %6
}

; Function Attrs: inlinehint nounwind uwtable
define internal void @Vec_PtrShrink(ptr noundef %0, i32 noundef %1) #4 {
  %3 = alloca ptr, align 8
  %4 = alloca i32, align 4
  store ptr %0, ptr %3, align 8, !tbaa !34
  store i32 %1, ptr %4, align 4, !tbaa !3
  %5 = load i32, ptr %4, align 4, !tbaa !3
  %6 = load ptr, ptr %3, align 8, !tbaa !34
  %7 = getelementptr inbounds nuw %struct.Vec_Ptr_t_, ptr %6, i32 0, i32 1
  store i32 %5, ptr %7, align 4, !tbaa !35
  ret void
}

; Function Attrs: inlinehint nounwind uwtable
define internal i32 @Aig_ObjFaninC0(ptr noundef %0) #4 {
  %2 = alloca ptr, align 8
  store ptr %0, ptr %2, align 8, !tbaa !39
  %3 = load ptr, ptr %2, align 8, !tbaa !39
  %4 = getelementptr inbounds nuw %struct.Aig_Obj_t_, ptr %3, i32 0, i32 1
  %5 = load ptr, ptr %4, align 8, !tbaa !50
  %6 = call i32 @Aig_IsComplement(ptr noundef %5)
  ret i32 %6
}

; Function Attrs: inlinehint nounwind uwtable
define internal i32 @Aig_ObjIsConst1(ptr noundef %0) #4 {
  %2 = alloca ptr, align 8
  store ptr %0, ptr %2, align 8, !tbaa !39
  %3 = load ptr, ptr %2, align 8, !tbaa !39
  %4 = getelementptr inbounds nuw %struct.Aig_Obj_t_, ptr %3, i32 0, i32 3
  %5 = load i64, ptr %4, align 8
  %6 = and i64 %5, 7
  %7 = trunc i64 %6 to i32
  %8 = icmp eq i32 %7, 1
  %9 = zext i1 %8 to i32
  ret i32 %9
}

; Function Attrs: inlinehint nounwind uwtable
define internal ptr @Aig_ObjFanin0(ptr noundef %0) #4 {
  %2 = alloca ptr, align 8
  store ptr %0, ptr %2, align 8, !tbaa !39
  %3 = load ptr, ptr %2, align 8, !tbaa !39
  %4 = getelementptr inbounds nuw %struct.Aig_Obj_t_, ptr %3, i32 0, i32 1
  %5 = load ptr, ptr %4, align 8, !tbaa !50
  %6 = call ptr @Aig_Regular(ptr noundef %5)
  ret ptr %6
}

; Function Attrs: inlinehint nounwind uwtable
define internal void @Vec_PtrWriteEntry(ptr noundef %0, i32 noundef %1, ptr noundef %2) #4 {
  %4 = alloca ptr, align 8
  %5 = alloca i32, align 4
  %6 = alloca ptr, align 8
  store ptr %0, ptr %4, align 8, !tbaa !34
  store i32 %1, ptr %5, align 4, !tbaa !3
  store ptr %2, ptr %6, align 8, !tbaa !49
  %7 = load ptr, ptr %6, align 8, !tbaa !49
  %8 = load ptr, ptr %4, align 8, !tbaa !34
  %9 = getelementptr inbounds nuw %struct.Vec_Ptr_t_, ptr %8, i32 0, i32 2
  %10 = load ptr, ptr %9, align 8, !tbaa !38
  %11 = load i32, ptr %5, align 4, !tbaa !3
  %12 = sext i32 %11 to i64
  %13 = getelementptr inbounds ptr, ptr %10, i64 %12
  store ptr %7, ptr %13, align 8, !tbaa !49
  ret void
}

; Function Attrs: inlinehint nounwind uwtable
define internal i32 @Aig_ManRegNum(ptr noundef %0) #4 {
  %2 = alloca ptr, align 8
  store ptr %0, ptr %2, align 8, !tbaa !7
  %3 = load ptr, ptr %2, align 8, !tbaa !7
  %4 = getelementptr inbounds nuw %struct.Aig_Man_t_, ptr %3, i32 0, i32 8
  %5 = load i32, ptr %4, align 8, !tbaa !85
  ret i32 %5
}

; Function Attrs: inlinehint nounwind uwtable
define internal ptr @Vec_PtrEntry(ptr noundef %0, i32 noundef %1) #4 {
  %3 = alloca ptr, align 8
  %4 = alloca i32, align 4
  store ptr %0, ptr %3, align 8, !tbaa !34
  store i32 %1, ptr %4, align 4, !tbaa !3
  %5 = load ptr, ptr %3, align 8, !tbaa !34
  %6 = getelementptr inbounds nuw %struct.Vec_Ptr_t_, ptr %5, i32 0, i32 2
  %7 = load ptr, ptr %6, align 8, !tbaa !38
  %8 = load i32, ptr %4, align 4, !tbaa !3
  %9 = sext i32 %8 to i64
  %10 = getelementptr inbounds ptr, ptr %7, i64 %9
  %11 = load ptr, ptr %10, align 8, !tbaa !49
  ret ptr %11
}

; Function Attrs: inlinehint nounwind uwtable
define internal i32 @Vec_PtrSize(ptr noundef %0) #4 {
  %2 = alloca ptr, align 8
  store ptr %0, ptr %2, align 8, !tbaa !34
  %3 = load ptr, ptr %2, align 8, !tbaa !34
  %4 = getelementptr inbounds nuw %struct.Vec_Ptr_t_, ptr %3, i32 0, i32 1
  %5 = load i32, ptr %4, align 4, !tbaa !35
  ret i32 %5
}

; Function Attrs: inlinehint nounwind uwtable
define internal i32 @Aig_ManCoNum(ptr noundef %0) #4 {
  %2 = alloca ptr, align 8
  store ptr %0, ptr %2, align 8, !tbaa !7
  %3 = load ptr, ptr %2, align 8, !tbaa !7
  %4 = getelementptr inbounds nuw %struct.Aig_Man_t_, ptr %3, i32 0, i32 14
  %5 = getelementptr inbounds [7 x i32], ptr %4, i64 0, i64 3
  %6 = load i32, ptr %5, align 4, !tbaa !3
  ret i32 %6
}

; Function Attrs: nounwind uwtable
define i32 @Aig_ManCoCleanup(ptr noundef %0) #0 {
  %2 = alloca ptr, align 8
  %3 = alloca ptr, align 8
  %4 = alloca i32, align 4
  %5 = alloca i32, align 4
  %6 = alloca i32, align 4
  store ptr %0, ptr %2, align 8, !tbaa !7
  call void @llvm.lifetime.start.p0(i64 8, ptr %3) #10
  call void @llvm.lifetime.start.p0(i64 4, ptr %4) #10
  call void @llvm.lifetime.start.p0(i64 4, ptr %5) #10
  store i32 0, ptr %5, align 4, !tbaa !3
  call void @llvm.lifetime.start.p0(i64 4, ptr %6) #10
  %7 = load ptr, ptr %2, align 8, !tbaa !7
  %8 = call i32 @Aig_ManCoNum(ptr noundef %7)
  store i32 %8, ptr %6, align 4, !tbaa !3
  store i32 0, ptr %4, align 4, !tbaa !3
  br label %9

9:                                                ; preds = %66, %1
  %10 = load i32, ptr %4, align 4, !tbaa !3
  %11 = load ptr, ptr %2, align 8, !tbaa !7
  %12 = getelementptr inbounds nuw %struct.Aig_Man_t_, ptr %11, i32 0, i32 3
  %13 = load ptr, ptr %12, align 8, !tbaa !25
  %14 = call i32 @Vec_PtrSize(ptr noundef %13)
  %15 = icmp slt i32 %10, %14
  br i1 %15, label %16, label %22

16:                                               ; preds = %9
  %17 = load ptr, ptr %2, align 8, !tbaa !7
  %18 = getelementptr inbounds nuw %struct.Aig_Man_t_, ptr %17, i32 0, i32 3
  %19 = load ptr, ptr %18, align 8, !tbaa !25
  %20 = load i32, ptr %4, align 4, !tbaa !3
  %21 = call ptr @Vec_PtrEntry(ptr noundef %19, i32 noundef %20)
  store ptr %21, ptr %3, align 8, !tbaa !39
  br label %22

22:                                               ; preds = %16, %9
  %23 = phi i1 [ false, %9 ], [ true, %16 ]
  br i1 %23, label %24, label %69

24:                                               ; preds = %22
  %25 = load i32, ptr %4, align 4, !tbaa !3
  %26 = load ptr, ptr %2, align 8, !tbaa !7
  %27 = call i32 @Aig_ManCoNum(ptr noundef %26)
  %28 = load ptr, ptr %2, align 8, !tbaa !7
  %29 = call i32 @Aig_ManRegNum(ptr noundef %28)
  %30 = sub nsw i32 %27, %29
  %31 = icmp sge i32 %25, %30
  br i1 %31, label %32, label %39

32:                                               ; preds = %24
  %33 = load ptr, ptr %2, align 8, !tbaa !7
  %34 = getelementptr inbounds nuw %struct.Aig_Man_t_, ptr %33, i32 0, i32 3
  %35 = load ptr, ptr %34, align 8, !tbaa !25
  %36 = load i32, ptr %5, align 4, !tbaa !3
  %37 = add nsw i32 %36, 1
  store i32 %37, ptr %5, align 4, !tbaa !3
  %38 = load ptr, ptr %3, align 8, !tbaa !39
  call void @Vec_PtrWriteEntry(ptr noundef %35, i32 noundef %36, ptr noundef %38)
  br label %65

39:                                               ; preds = %24
  %40 = load ptr, ptr %3, align 8, !tbaa !39
  %41 = call ptr @Aig_ObjFanin0(ptr noundef %40)
  %42 = call i32 @Aig_ObjIsConst1(ptr noundef %41)
  %43 = icmp ne i32 %42, 0
  br i1 %43, label %44, label %48

44:                                               ; preds = %39
  %45 = load ptr, ptr %3, align 8, !tbaa !39
  %46 = call i32 @Aig_ObjFaninC0(ptr noundef %45)
  %47 = icmp ne i32 %46, 0
  br i1 %47, label %55, label %48

48:                                               ; preds = %44, %39
  %49 = load ptr, ptr %2, align 8, !tbaa !7
  %50 = getelementptr inbounds nuw %struct.Aig_Man_t_, ptr %49, i32 0, i32 3
  %51 = load ptr, ptr %50, align 8, !tbaa !25
  %52 = load i32, ptr %5, align 4, !tbaa !3
  %53 = add nsw i32 %52, 1
  store i32 %53, ptr %5, align 4, !tbaa !3
  %54 = load ptr, ptr %3, align 8, !tbaa !39
  call void @Vec_PtrWriteEntry(ptr noundef %51, i32 noundef %52, ptr noundef %54)
  br label %64

55:                                               ; preds = %44
  %56 = load ptr, ptr %2, align 8, !tbaa !7
  %57 = load ptr, ptr %3, align 8, !tbaa !39
  call void @Aig_ObjDisconnect(ptr noundef %56, ptr noundef %57)
  %58 = load ptr, ptr %2, align 8, !tbaa !7
  %59 = getelementptr inbounds nuw %struct.Aig_Man_t_, ptr %58, i32 0, i32 4
  %60 = load ptr, ptr %59, align 8, !tbaa !26
  %61 = load ptr, ptr %3, align 8, !tbaa !39
  %62 = getelementptr inbounds nuw %struct.Aig_Obj_t_, ptr %61, i32 0, i32 5
  %63 = load i32, ptr %62, align 4, !tbaa !40
  call void @Vec_PtrWriteEntry(ptr noundef %60, i32 noundef %63, ptr noundef null)
  br label %64

64:                                               ; preds = %55, %48
  br label %65

65:                                               ; preds = %64, %32
  br label %66

66:                                               ; preds = %65
  %67 = load i32, ptr %4, align 4, !tbaa !3
  %68 = add nsw i32 %67, 1
  store i32 %68, ptr %4, align 4, !tbaa !3
  br label %9, !llvm.loop !86

69:                                               ; preds = %22
  %70 = load ptr, ptr %2, align 8, !tbaa !7
  %71 = getelementptr inbounds nuw %struct.Aig_Man_t_, ptr %70, i32 0, i32 3
  %72 = load ptr, ptr %71, align 8, !tbaa !25
  %73 = load i32, ptr %5, align 4, !tbaa !3
  call void @Vec_PtrShrink(ptr noundef %72, i32 noundef %73)
  %74 = load ptr, ptr %2, align 8, !tbaa !7
  %75 = getelementptr inbounds nuw %struct.Aig_Man_t_, ptr %74, i32 0, i32 3
  %76 = load ptr, ptr %75, align 8, !tbaa !25
  %77 = call i32 @Vec_PtrSize(ptr noundef %76)
  %78 = load ptr, ptr %2, align 8, !tbaa !7
  %79 = getelementptr inbounds nuw %struct.Aig_Man_t_, ptr %78, i32 0, i32 14
  %80 = getelementptr inbounds [7 x i32], ptr %79, i64 0, i64 3
  store i32 %77, ptr %80, align 4, !tbaa !3
  %81 = load ptr, ptr %2, align 8, !tbaa !7
  %82 = call i32 @Aig_ManRegNum(ptr noundef %81)
  %83 = icmp ne i32 %82, 0
  br i1 %83, label %84, label %92

84:                                               ; preds = %69
  %85 = load ptr, ptr %2, align 8, !tbaa !7
  %86 = call i32 @Aig_ManCoNum(ptr noundef %85)
  %87 = load ptr, ptr %2, align 8, !tbaa !7
  %88 = call i32 @Aig_ManRegNum(ptr noundef %87)
  %89 = sub nsw i32 %86, %88
  %90 = load ptr, ptr %2, align 8, !tbaa !7
  %91 = getelementptr inbounds nuw %struct.Aig_Man_t_, ptr %90, i32 0, i32 10
  store i32 %89, ptr %91, align 8, !tbaa !87
  br label %92

92:                                               ; preds = %84, %69
  %93 = load i32, ptr %6, align 4, !tbaa !3
  %94 = load ptr, ptr %2, align 8, !tbaa !7
  %95 = call i32 @Aig_ManCoNum(ptr noundef %94)
  %96 = sub nsw i32 %93, %95
  call void @llvm.lifetime.end.p0(i64 4, ptr %6) #10
  call void @llvm.lifetime.end.p0(i64 4, ptr %5) #10
  call void @llvm.lifetime.end.p0(i64 4, ptr %4) #10
  call void @llvm.lifetime.end.p0(i64 8, ptr %3) #10
  ret i32 %96
}