; Function Attrs: nounwind uwtable
define i32 @Aig_ManCoCleanup(ptr noundef %0) local_unnamed_addr #0 {
  %2 = getelementptr i8, ptr %0, i64 140
  %.val41 = load i32, ptr %2, align 4, !tbaa !35
  %3 = getelementptr inbounds nuw i8, ptr %0, i64 24
  %4 = load ptr, ptr %3, align 8, !tbaa !26
  %5 = getelementptr i8, ptr %4, i64 4
  %.val3451 = load i32, ptr %5, align 4, !tbaa !21
  %6 = icmp sgt i32 %.val3451, 0
  br i1 %6, label %.lr.ph, label %.critedge

.lr.ph:                                           ; preds = %1
  %7 = getelementptr i8, ptr %0, i64 104
  %8 = getelementptr inbounds nuw i8, ptr %0, i64 32
  br label %9

9:                                                ; preds = %.lr.ph, %34
  %indvars.iv = phi i64 [ 0, %.lr.ph ], [ %indvars.iv.next, %34 ]
  %10 = phi ptr [ %4, %.lr.ph ], [ %37, %34 ]
  %.03052 = phi i32 [ 0, %.lr.ph ], [ %.1, %34 ]
  %11 = getelementptr i8, ptr %10, i64 8
  %.val35 = load ptr, ptr %11, align 8, !tbaa !24
  %12 = getelementptr inbounds nuw ptr, ptr %.val35, i64 %indvars.iv
  %13 = load ptr, ptr %12, align 8, !tbaa !33
  %.val40 = load i32, ptr %2, align 4, !tbaa !35
  %.val44 = load i32, ptr %7, align 8, !tbaa !79
  %14 = sub nsw i32 %.val40, %.val44
  %15 = sext i32 %14 to i64
  %.not31 = icmp slt i64 %indvars.iv, %15
  br i1 %.not31, label %18, label %16

16:                                               ; preds = %9
  %17 = add nsw i32 %.03052, 1
  br label %34

18:                                               ; preds = %9
  %19 = getelementptr i8, ptr %13, i64 8
  %.val36 = load ptr, ptr %19, align 8, !tbaa !45
  %20 = ptrtoint ptr %.val36 to i64
  %21 = and i64 %20, -2
  %22 = inttoptr i64 %21 to ptr
  %23 = getelementptr i8, ptr %22, i64 24
  %.val48 = load i64, ptr %23, align 8
  %24 = and i64 %.val48, 7
  %25 = icmp ne i64 %24, 1
  %26 = and i64 %20, 1
  %.not33 = icmp eq i64 %26, 0
  %or.cond = or i1 %25, %.not33
  br i1 %or.cond, label %27, label %29

27:                                               ; preds = %18
  %28 = add nsw i32 %.03052, 1
  br label %34

29:                                               ; preds = %18
  tail call void @Aig_ObjDisconnect(ptr noundef nonnull %0, ptr noundef nonnull %13) #19
  %30 = load ptr, ptr %8, align 8, !tbaa !27
  %31 = getelementptr inbounds nuw i8, ptr %13, i64 36
  %32 = load i32, ptr %31, align 4, !tbaa !32
  %33 = getelementptr i8, ptr %30, i64 8
  %.val45 = load ptr, ptr %33, align 8, !tbaa !24
  br label %34

34:                                               ; preds = %16, %29, %27
  %.03052.sink = phi i32 [ %.03052, %16 ], [ %32, %29 ], [ %.03052, %27 ]
  %.val35.sink = phi ptr [ %.val35, %16 ], [ %.val45, %29 ], [ %.val35, %27 ]
  %.sink = phi ptr [ %13, %16 ], [ null, %29 ], [ %13, %27 ]
  %.1 = phi i32 [ %17, %16 ], [ %.03052, %29 ], [ %28, %27 ]
  %35 = sext i32 %.03052.sink to i64
  %36 = getelementptr inbounds ptr, ptr %.val35.sink, i64 %35
  store ptr %.sink, ptr %36, align 8, !tbaa !33
  %indvars.iv.next = add nuw nsw i64 %indvars.iv, 1
  %37 = load ptr, ptr %3, align 8, !tbaa !26
  %38 = getelementptr i8, ptr %37, i64 4
  %.val34 = load i32, ptr %38, align 4, !tbaa !21
  %39 = sext i32 %.val34 to i64
  %40 = icmp slt i64 %indvars.iv.next, %39
  br i1 %40, label %9, label %.critedge, !llvm.loop !82

.critedge:                                        ; preds = %34, %1
  %.lcssa50 = phi ptr [ %4, %1 ], [ %37, %34 ]
  %.030.lcssa = phi i32 [ 0, %1 ], [ %.1, %34 ]
  %41 = getelementptr i8, ptr %.lcssa50, i64 4
  store i32 %.030.lcssa, ptr %41, align 4, !tbaa !21
  store i32 %.030.lcssa, ptr %2, align 4, !tbaa !35
  %42 = getelementptr i8, ptr %0, i64 104
  %.val43 = load i32, ptr %42, align 8, !tbaa !79
  %.not = icmp eq i32 %.val43, 0
  br i1 %.not, label %46, label %43

43:                                               ; preds = %.critedge
  %44 = sub nsw i32 %.030.lcssa, %.val43
  %45 = getelementptr inbounds nuw i8, ptr %0, i64 112
  store i32 %44, ptr %45, align 8, !tbaa !83
  br label %46

46:                                               ; preds = %43, %.critedge
  %47 = sub nsw i32 %.val41, %.030.lcssa
  ret i32 %47
}